; Function Attrs: mustprogress uwtable
define dso_local void @_ZN18AttributeGenerator6OutputERSo(ptr nocapture noundef nonnull readonly align 8 dereferenceable(24) %0, ptr noundef nonnull align 8 dereferenceable(8) %1) local_unnamed_addr #0 align 2 personality ptr @__gxx_personality_v0 {
  %3 = alloca %"class.std::__cxx11::basic_string", align 8
  %4 = alloca %"class.std::__cxx11::basic_string", align 8
  %5 = load ptr, ptr %0, align 8
  %6 = getelementptr inbounds i8, ptr %0, i64 8
  %7 = load ptr, ptr %6, align 8
  %.not1215 = icmp eq ptr %5, %7
  br i1 %.not1215, label %._crit_edge.thread, label %.lr.ph

.lr.ph:                                           ; preds = %2, %26
  %.017 = phi i8 [ %.1, %26 ], [ 0, %2 ]
  %.sroa.09.016 = phi ptr [ %27, %26 ], [ %5, %2 ]
  call void @_ZNSt7__cxx1112basic_stringIcSt11char_traitsIcESaIcEEC1Ev(ptr noundef nonnull align 8 dereferenceable(32) %3) #8
  %8 = load ptr, ptr %.sroa.09.016, align 8
  %9 = load ptr, ptr %8, align 8
  %10 = load ptr, ptr %9, align 8
  invoke void %10(ptr dead_on_unwind nonnull writable sret(%"class.std::__cxx11::basic_string") align 8 %4, ptr noundef nonnull align 8 dereferenceable(44) %8)
          to label %11 unwind label %20

11:                                               ; preds = %.lr.ph
  %12 = call noundef nonnull align 8 dereferenceable(32) ptr @_ZNSt7__cxx1112basic_stringIcSt11char_traitsIcESaIcEEaSEOS4_(ptr noundef nonnull align 8 dereferenceable(32) %3, ptr noundef nonnull align 8 dereferenceable(32) %4) #8
  call void @_ZNSt7__cxx1112basic_stringIcSt11char_traitsIcESaIcEED1Ev(ptr noundef nonnull align 8 dereferenceable(32) %4) #8
  %13 = call noundef i32 @_ZNKSt7__cxx1112basic_stringIcSt11char_traitsIcESaIcEE7compareEPKc(ptr noundef nonnull align 8 dereferenceable(32) %3, ptr noundef nonnull @.str) #8
  %.not13 = icmp eq i32 %13, 0
  br i1 %.not13, label %26, label %14

14:                                               ; preds = %11
  %15 = and i8 %.017, 1
  %.not8 = icmp eq i8 %15, 0
  br i1 %.not8, label %16, label %22

16:                                               ; preds = %14
  %17 = invoke noundef nonnull align 8 dereferenceable(8) ptr @_ZStlsISt11char_traitsIcEERSt13basic_ostreamIcT_ES5_PKc(ptr noundef nonnull align 8 dereferenceable(8) %1, ptr noundef nonnull @.str.1)
          to label %18 unwind label %20

18:                                               ; preds = %16
  %19 = invoke noundef nonnull align 8 dereferenceable(8) ptr @_ZStlsIcSt11char_traitsIcESaIcEERSt13basic_ostreamIT_T0_ES7_RKNSt7__cxx1112basic_stringIS4_S5_T1_EE(ptr noundef nonnull align 8 dereferenceable(8) %17, ptr noundef nonnull align 8 dereferenceable(32) %3)
          to label %26 unwind label %20

20:                                               ; preds = %24, %22, %18, %16, %.lr.ph
  %21 = landingpad { ptr, i32 }
          cleanup
  call void @_ZNSt7__cxx1112basic_stringIcSt11char_traitsIcESaIcEED1Ev(ptr noundef nonnull align 8 dereferenceable(32) %3) #8
  resume { ptr, i32 } %21

22:                                               ; preds = %14
  %23 = invoke noundef nonnull align 8 dereferenceable(8) ptr @_ZStlsISt11char_traitsIcEERSt13basic_ostreamIcT_ES5_PKc(ptr noundef nonnull align 8 dereferenceable(8) %1, ptr noundef nonnull @.str.2)
          to label %24 unwind label %20

24:                                               ; preds = %22
  %25 = invoke noundef nonnull align 8 dereferenceable(8) ptr @_ZStlsIcSt11char_traitsIcESaIcEERSt13basic_ostreamIT_T0_ES7_RKNSt7__cxx1112basic_stringIS4_S5_T1_EE(ptr noundef nonnull align 8 dereferenceable(8) %23, ptr noundef nonnull align 8 dereferenceable(32) %3)
          to label %26 unwind label %20

26:                                               ; preds = %18, %24, %11
  %.1 = phi i8 [ %.017, %24 ], [ %.017, %11 ], [ 1, %18 ]
  call void @_ZNSt7__cxx1112basic_stringIcSt11char_traitsIcESaIcEED1Ev(ptr noundef nonnull align 8 dereferenceable(32) %3) #8
  %27 = getelementptr inbounds i8, ptr %.sroa.09.016, i64 8
  %28 = load ptr, ptr %6, align 8
  %.not12 = icmp eq ptr %27, %28
  br i1 %.not12, label %._crit_edge, label %.lr.ph, !llvm.loop !5

._crit_edge:                                      ; preds = %26
  %29 = and i8 %.1, 1
  %30 = icmp eq i8 %29, 0
  br i1 %30, label %._crit_edge.thread, label %31

31:                                               ; preds = %._crit_edge
  %32 = call noundef nonnull align 8 dereferenceable(8) ptr @_ZStlsISt11char_traitsIcEERSt13basic_ostreamIcT_ES5_PKc(ptr noundef nonnull align 8 dereferenceable(8) %1, ptr noundef nonnull @.str.3)
  br label %._crit_edge.thread

._crit_edge.thread:                               ; preds = %2, %31, %._crit_edge
  ret void
}